target datalayout = "e-m:e-p270:32:32-p271:32:32-p272:64:64-i64:64-i128:128-f80:128-n8:16:32:64-S128"
target triple = "x86_64-pc-linux-gnu"

%union.pthread_mutex_t = type { %struct.__pthread_mutex_s }
%struct.__pthread_mutex_s = type { i32, i32, i32, i32, i32, i16, i16, %struct.__pthread_internal_list }
%struct.__pthread_internal_list = type { ptr, ptr }
%union.pthread_cond_t = type { %struct.__pthread_cond_s }
%struct.__pthread_cond_s = type { %union.__atomic_wide_counter, %union.__atomic_wide_counter, [2 x i32], [2 x i32], i32, i32, [2 x i32] }
%union.__atomic_wide_counter = type { i64 }
%struct.jobgroup = type { %union.pthread_mutex_t, %union.pthread_cond_t, i32, i32, i32, i32, i32 }

@.str.24 = private unnamed_addr constant [33 x i8] c"Failed to initialize group mutex\00", align 1
@.str.25 = private unnamed_addr constant [32 x i8] c"Failed to initialize group cond\00", align 1
@.str.26 = private unnamed_addr constant [23 x i8] c"THRMGR: new group: %p\0A\00", align 1

; Function Attrs: nounwind uwtable
define dso_local ptr @thrmgr_group_new() #0 {
  %1 = alloca ptr, align 8
  %2 = alloca ptr, align 8
  %3 = call noalias ptr @malloc(i64 noundef 112) #11
  store ptr %3, ptr %2, align 8
  %4 = load ptr, ptr %2, align 8
  %5 = icmp ne ptr %4, null
  br i1 %5, label %7, label %6

6:                                                ; preds = %0
  store ptr null, ptr %1, align 8
  br label %40

7:                                                ; preds = %0
  %8 = load ptr, ptr %2, align 8
  %9 = getelementptr inbounds %struct.jobgroup, ptr %8, i32 0, i32 2
  store i32 1, ptr %9, align 8
  %10 = load ptr, ptr %2, align 8
  %11 = getelementptr inbounds %struct.jobgroup, ptr %10, i32 0, i32 6
  store i32 0, ptr %11, align 8
  %12 = load ptr, ptr %2, align 8
  %13 = getelementptr inbounds %struct.jobgroup, ptr %12, i32 0, i32 5
  store i32 0, ptr %13, align 4
  %14 = load ptr, ptr %2, align 8
  %15 = getelementptr inbounds %struct.jobgroup, ptr %14, i32 0, i32 4
  store i32 0, ptr %15, align 8
  %16 = load ptr, ptr %2, align 8
  %17 = getelementptr inbounds %struct.jobgroup, ptr %16, i32 0, i32 3
  store i32 0, ptr %17, align 4
  %18 = load ptr, ptr %2, align 8
  %19 = getelementptr inbounds %struct.jobgroup, ptr %18, i32 0, i32 0
  %20 = call i32 @pthread_mutex_init(ptr noundef %19, ptr noundef null) #8
  %21 = icmp ne i32 %20, 0
  br i1 %21, label %22, label %25

22:                                               ; preds = %7
  %23 = call i32 (i32, ptr, ...) @logg(i32 noundef 4, ptr noundef @.str.24)
  %24 = load ptr, ptr %2, align 8
  call void @free(ptr noundef %24) #8
  store ptr null, ptr %1, align 8
  br label %40

25:                                               ; preds = %7
  %26 = load ptr, ptr %2, align 8
  %27 = getelementptr inbounds %struct.jobgroup, ptr %26, i32 0, i32 1
  %28 = call i32 @pthread_cond_init(ptr noundef %27, ptr noundef null) #8
  %29 = icmp ne i32 %28, 0
  br i1 %29, label %30, label %36

30:                                               ; preds = %25
  %31 = call i32 (i32, ptr, ...) @logg(i32 noundef 4, ptr noundef @.str.25)
  %32 = load ptr, ptr %2, align 8
  %33 = getelementptr inbounds %struct.jobgroup, ptr %32, i32 0, i32 0
  %34 = call i32 @pthread_mutex_destroy(ptr noundef %33) #8
  %35 = load ptr, ptr %2, align 8
  call void @free(ptr noundef %35) #8
  store ptr null, ptr %1, align 8
  br label %40

36:                                               ; preds = %25
  %37 = load ptr, ptr %2, align 8
  %38 = call i32 (i32, ptr, ...) @logg(i32 noundef 3, ptr noundef @.str.26, ptr noundef %37)
  %39 = load ptr, ptr %2, align 8
  store ptr %39, ptr %1, align 8
  br label %40

40:                                               ; preds = %36, %30, %22, %6
  %41 = load ptr, ptr %1, align 8
  ret ptr %41
}