; Function Attrs: nounwind uwtable
define dso_local noundef ptr @thrmgr_group_new() local_unnamed_addr #0 {
  %1 = tail call noalias dereferenceable_or_null(112) ptr @malloc(i64 noundef 112) #15
  %.not = icmp eq ptr %1, null
  br i1 %.not, label %16, label %2

2:                                                ; preds = %0
  %3 = getelementptr inbounds i8, ptr %1, i64 88
  store i32 1, ptr %3, align 8
  %4 = getelementptr inbounds i8, ptr %1, i64 92
  tail call void @llvm.memset.p0.i64(ptr noundef nonnull align 4 dereferenceable(16) %4, i8 0, i64 16, i1 false)
  %5 = tail call i32 @pthread_mutex_init(ptr noundef nonnull %1, ptr noundef null) #12
  %.not15 = icmp eq i32 %5, 0
  br i1 %.not15, label %8, label %6

6:                                                ; preds = %2
  %7 = tail call i32 (i32, ptr, ...) @logg(i32 noundef 4, ptr noundef nonnull @.str.24) #12
  tail call void @free(ptr noundef nonnull %1) #12
  br label %16

8:                                                ; preds = %2
  %9 = getelementptr inbounds i8, ptr %1, i64 40
  %10 = tail call i32 @pthread_cond_init(ptr noundef nonnull %9, ptr noundef null) #12
  %.not16 = icmp eq i32 %10, 0
  br i1 %.not16, label %14, label %11

11:                                               ; preds = %8
  %12 = tail call i32 (i32, ptr, ...) @logg(i32 noundef 4, ptr noundef nonnull @.str.25) #12
  %13 = tail call i32 @pthread_mutex_destroy(ptr noundef nonnull %1) #12
  tail call void @free(ptr noundef nonnull %1) #12
  br label %16

14:                                               ; preds = %8
  %15 = tail call i32 (i32, ptr, ...) @logg(i32 noundef 3, ptr noundef nonnull @.str.26, ptr noundef nonnull %1) #12
  br label %16

16:                                               ; preds = %0, %14, %11, %6
  %.0 = phi ptr [ null, %6 ], [ null, %11 ], [ %1, %14 ], [ null, %0 ]
  ret ptr %.0
}